target datalayout = "e-m:e-p270:32:32-p271:32:32-p272:64:64-i64:64-i128:128-f80:128-n8:16:32:64-S128"
target triple = "x86_64-pc-linux-gnu"

%struct.helper = type { ptr, %struct.ossl_quic_tx_packetiser_args_st, %struct.ossl_qtx_args_st, ptr, ptr, %struct.quic_txfc_st, %struct.quic_rxfc_st, %struct.quic_rxfc_st, %struct.quic_rxfc_st, %struct.quic_rxfc_st, %struct.ossl_statm_st, ptr, ptr, %struct.quic_stream_map_st, i8, i8, ptr, ptr, %struct.ossl_qrx_args_st, ptr, %struct.PACKET, i64, %union.anon.0, [16 x %struct.ossl_quic_ack_range_st] }
%struct.ossl_quic_tx_packetiser_args_st = type { %struct.quic_conn_id_st, %struct.quic_conn_id_st, %union.bio_addr_st, i32, ptr, ptr, ptr, ptr, ptr, ptr, ptr, ptr, ptr, ptr, ptr, ptr, ptr, ptr, ptr, i32, [3 x ptr] }
%struct.quic_conn_id_st = type { i8, [20 x i8] }
%union.bio_addr_st = type { %struct.sockaddr_in6, [84 x i8] }
%struct.sockaddr_in6 = type { i16, i16, i32, %struct.in6_addr, i32 }
%struct.in6_addr = type { %union.anon }
%union.anon = type { [4 x i32] }
%struct.ossl_qtx_args_st = type { ptr, ptr, ptr, i64, ptr, ptr }
%struct.quic_txfc_st = type { ptr, i64, i64, i8 }
%struct.quic_rxfc_st = type { i64, i64, i64, i64, i64, i64, i64, %struct.OSSL_TIME, ptr, ptr, ptr, i8, i8, i8, i8 }
%struct.OSSL_TIME = type { i64 }
%struct.ossl_statm_st = type { %struct.OSSL_TIME, %struct.OSSL_TIME, %struct.OSSL_TIME, %struct.OSSL_TIME, i8 }
%struct.quic_stream_map_st = type { ptr, %struct.quic_stream_list_node_st, %struct.quic_stream_list_node_st, %struct.quic_stream_list_node_st, i64, i64, i64, i64, i64, ptr, ptr, ptr, ptr, ptr, i32 }
%struct.quic_stream_list_node_st = type { ptr, ptr }
%struct.ossl_qrx_args_st = type { ptr, ptr, ptr, i64, i64, [3 x i64], i8 }
%struct.PACKET = type { ptr, i64 }
%union.anon.0 = type { %struct.ossl_quic_frame_new_conn_id_st }
%struct.ossl_quic_frame_new_conn_id_st = type { i64, i64, %struct.quic_conn_id_st, %struct.QUIC_STATELESS_RESET_TOKEN }
%struct.QUIC_STATELESS_RESET_TOKEN = type { [16 x i8] }
%struct.ossl_quic_ack_range_st = type { i64, i64 }
%struct.wpacket_st = type { ptr, ptr, i64, i64, i64, ptr, i8 }
%struct.buf_mem_st = type { i64, ptr, i64, i64 }

@.str.2 = private unnamed_addr constant [32 x i8] c"../openssl/test/quic_txp_test.c\00", align 1
@reset_token_1 = internal constant [16 x i8] c"\99\88wfUD3\22\11\AA\BB\CC\DD\EE\FF\12", align 16
@.str.108 = private unnamed_addr constant [24 x i8] c"buf_mem = BUF_MEM_new()\00", align 1
@.str.109 = private unnamed_addr constant [29 x i8] c"WPACKET_init(&wpkt, buf_mem)\00", align 1
@.str.110 = private unnamed_addr constant [54 x i8] c"ossl_quic_wire_encode_frame_new_conn_id(&wpkt, &ncid)\00", align 1
@.str.111 = private unnamed_addr constant [37 x i8] c"WPACKET_get_total_written(&wpkt, &l)\00", align 1
@.str.112 = private unnamed_addr constant [165 x i8] c"cfq_item = ossl_quic_cfq_add_frame(h->args.cfq, 1, QUIC_PN_SPACE_APP, OSSL_QUIC_FRAME_TYPE_NEW_CONN_ID, 0, (unsigned char *)buf_mem->data, l, free_buf_mem, buf_mem)\00", align 1
@cid_1 = internal constant { i8, <{ [8 x i8], [12 x i8] }> } { i8 8, <{ [8 x i8], [12 x i8] }> <{ [8 x i8] c"\B1\B2\B3\B4\B5\B6\B7\B8", [12 x i8] zeroinitializer }> }, align 1

; Function Attrs: nounwind uwtable
define internal i32 @schedule_cfq_new_conn_id(ptr noundef %0) #0 {
  %2 = alloca ptr, align 8
  %3 = alloca i32, align 4
  %4 = alloca ptr, align 8
  %5 = alloca %struct.wpacket_st, align 8
  %6 = alloca ptr, align 8
  %7 = alloca i64, align 8
  %8 = alloca %struct.ossl_quic_frame_new_conn_id_st, align 8
  store ptr %0, ptr %2, align 8, !tbaa !82
  call void @llvm.lifetime.start.p0(i64 4, ptr %3) #7
  store i32 0, ptr %3, align 4, !tbaa !4
  call void @llvm.lifetime.start.p0(i64 8, ptr %4) #7
  call void @llvm.lifetime.start.p0(i64 56, ptr %5) #7
  call void @llvm.lifetime.start.p0(i64 8, ptr %6) #7
  store ptr null, ptr %6, align 8, !tbaa !124
  call void @llvm.lifetime.start.p0(i64 8, ptr %7) #7
  store i64 0, ptr %7, align 8, !tbaa !11
  call void @llvm.lifetime.start.p0(i64 56, ptr %8) #7
  call void @llvm.memset.p0.i64(ptr align 8 %8, i8 0, i64 56, i1 false)
  %9 = getelementptr inbounds nuw %struct.ossl_quic_frame_new_conn_id_st, ptr %8, i32 0, i32 0
  store i64 2345, ptr %9, align 8, !tbaa !126
  %10 = getelementptr inbounds nuw %struct.ossl_quic_frame_new_conn_id_st, ptr %8, i32 0, i32 1
  store i64 1234, ptr %10, align 8, !tbaa !129
  %11 = getelementptr inbounds nuw %struct.ossl_quic_frame_new_conn_id_st, ptr %8, i32 0, i32 2
  call void @llvm.memcpy.p0.p0.i64(ptr align 8 %11, ptr align 1 @cid_1, i64 21, i1 false), !tbaa.struct !97
  %12 = getelementptr inbounds nuw %struct.ossl_quic_frame_new_conn_id_st, ptr %8, i32 0, i32 3
  %13 = getelementptr inbounds nuw %struct.QUIC_STATELESS_RESET_TOKEN, ptr %12, i32 0, i32 0
  %14 = getelementptr inbounds [16 x i8], ptr %13, i64 0, i64 0
  call void @llvm.memcpy.p0.p0.i64(ptr align 1 %14, ptr align 16 @reset_token_1, i64 16, i1 false)
  %15 = call ptr @BUF_MEM_new()
  store ptr %15, ptr %6, align 8, !tbaa !124
  %16 = call i32 @test_ptr(ptr noundef @.str.2, i32 noundef 425, ptr noundef @.str.108, ptr noundef %15)
  %17 = icmp ne i32 %16, 0
  br i1 %17, label %19, label %18

18:                                               ; preds = %1
  br label %57

19:                                               ; preds = %1
  %20 = load ptr, ptr %6, align 8, !tbaa !124
  %21 = call i32 @WPACKET_init(ptr noundef %5, ptr noundef %20)
  %22 = icmp ne i32 %21, 0
  %23 = zext i1 %22 to i32
  %24 = call i32 @test_true(ptr noundef @.str.2, i32 noundef 428, ptr noundef @.str.109, i32 noundef %23)
  %25 = icmp ne i32 %24, 0
  br i1 %25, label %27, label %26

26:                                               ; preds = %19
  br label %57

27:                                               ; preds = %19
  %28 = call i32 @ossl_quic_wire_encode_frame_new_conn_id(ptr noundef %5, ptr noundef %8)
  %29 = icmp ne i32 %28, 0
  %30 = zext i1 %29 to i32
  %31 = call i32 @test_true(ptr noundef @.str.2, i32 noundef 431, ptr noundef @.str.110, i32 noundef %30)
  %32 = icmp ne i32 %31, 0
  br i1 %32, label %34, label %33

33:                                               ; preds = %27
  call void @WPACKET_cleanup(ptr noundef %5)
  br label %57

34:                                               ; preds = %27
  %35 = call i32 @WPACKET_finish(ptr noundef %5)
  %36 = call i32 @WPACKET_get_total_written(ptr noundef %5, ptr noundef %7)
  %37 = icmp ne i32 %36, 0
  %38 = zext i1 %37 to i32
  %39 = call i32 @test_true(ptr noundef @.str.2, i32 noundef 438, ptr noundef @.str.111, i32 noundef %38)
  %40 = icmp ne i32 %39, 0
  br i1 %40, label %42, label %41

41:                                               ; preds = %34
  br label %57

42:                                               ; preds = %34
  %43 = load ptr, ptr %2, align 8, !tbaa !82
  %44 = getelementptr inbounds nuw %struct.helper, ptr %43, i32 0, i32 1
  %45 = getelementptr inbounds nuw %struct.ossl_quic_tx_packetiser_args_st, ptr %44, i32 0, i32 6
  %46 = load ptr, ptr %45, align 8, !tbaa !88
  %47 = load ptr, ptr %6, align 8, !tbaa !124
  %48 = getelementptr inbounds nuw %struct.buf_mem_st, ptr %47, i32 0, i32 1
  %49 = load ptr, ptr %48, align 8, !tbaa !130
  %50 = load i64, ptr %7, align 8, !tbaa !11
  %51 = load ptr, ptr %6, align 8, !tbaa !124
  %52 = call ptr @ossl_quic_cfq_add_frame(ptr noundef %46, i32 noundef 1, i32 noundef 2, i64 noundef 24, i32 noundef 0, ptr noundef %49, i64 noundef %50, ptr noundef @free_buf_mem, ptr noundef %51)
  store ptr %52, ptr %4, align 8, !tbaa !132
  %53 = call i32 @test_ptr(ptr noundef @.str.2, i32 noundef 446, ptr noundef @.str.112, ptr noundef %52)
  %54 = icmp ne i32 %53, 0
  br i1 %54, label %56, label %55

55:                                               ; preds = %42
  br label %57

56:                                               ; preds = %42
  store i32 1, ptr %3, align 4, !tbaa !4
  br label %57

57:                                               ; preds = %56, %55, %41, %33, %26, %18
  %58 = load i32, ptr %3, align 4, !tbaa !4
  %59 = icmp ne i32 %58, 0
  br i1 %59, label %62, label %60

60:                                               ; preds = %57
  %61 = load ptr, ptr %6, align 8, !tbaa !124
  call void @BUF_MEM_free(ptr noundef %61)
  br label %62

62:                                               ; preds = %60, %57
  %63 = load i32, ptr %3, align 4, !tbaa !4
  call void @llvm.lifetime.end.p0(i64 56, ptr %8) #7
  call void @llvm.lifetime.end.p0(i64 8, ptr %7) #7
  call void @llvm.lifetime.end.p0(i64 8, ptr %6) #7
  call void @llvm.lifetime.end.p0(i64 56, ptr %5) #7
  call void @llvm.lifetime.end.p0(i64 8, ptr %4) #7
  call void @llvm.lifetime.end.p0(i64 4, ptr %3) #7
  ret i32 %63
}