; Function Attrs: nounwind uwtable
define internal range(i32 0, 2) i32 @schedule_cfq_new_conn_id(ptr noundef readonly captures(none) %0) #0 {
  %2 = alloca %struct.wpacket_st, align 8
  %3 = alloca i64, align 8
  %4 = alloca %struct.ossl_quic_frame_new_conn_id_st, align 8
  call void @llvm.lifetime.start.p0(i64 56, ptr nonnull %2) #8
  call void @llvm.lifetime.start.p0(i64 8, ptr nonnull %3) #8
  store i64 0, ptr %3, align 8, !tbaa !102
  call void @llvm.lifetime.start.p0(i64 56, ptr nonnull %4) #8
  %5 = getelementptr inbounds nuw i8, ptr %4, i64 48
  store i64 0, ptr %5, align 8
  store i64 2345, ptr %4, align 8, !tbaa !112
  %6 = getelementptr inbounds nuw i8, ptr %4, i64 8
  store i64 1234, ptr %6, align 8, !tbaa !115
  %7 = getelementptr inbounds nuw i8, ptr %4, i64 16
  call void @llvm.memcpy.p0.p0.i64(ptr noundef nonnull align 8 dereferenceable(21) %7, ptr noundef nonnull align 1 dereferenceable(21) @cid_1, i64 21, i1 false), !tbaa.struct !63
  %8 = getelementptr inbounds nuw i8, ptr %4, i64 37
  call void @llvm.memcpy.p0.p0.i64(ptr noundef nonnull align 1 dereferenceable(16) %8, ptr noundef nonnull align 16 dereferenceable(16) @reset_token_1, i64 16, i1 false)
  %9 = tail call ptr @BUF_MEM_new() #8
  %10 = tail call i32 @test_ptr(ptr noundef nonnull @.str.2, i32 noundef 425, ptr noundef nonnull @.str.108, ptr noundef %9) #8
  %.not = icmp eq i32 %10, 0
  br i1 %.not, label %.thread, label %11

11:                                               ; preds = %1
  %12 = call i32 @WPACKET_init(ptr noundef nonnull %2, ptr noundef %9) #8
  %13 = icmp ne i32 %12, 0
  %14 = zext i1 %13 to i32
  %15 = call i32 @test_true(ptr noundef nonnull @.str.2, i32 noundef 428, ptr noundef nonnull @.str.109, i32 noundef %14) #8
  %.not6 = icmp eq i32 %15, 0
  br i1 %.not6, label %.thread, label %16

16:                                               ; preds = %11
  %17 = call i32 @ossl_quic_wire_encode_frame_new_conn_id(ptr noundef nonnull %2, ptr noundef nonnull %4) #8
  %18 = icmp ne i32 %17, 0
  %19 = zext i1 %18 to i32
  %20 = call i32 @test_true(ptr noundef nonnull @.str.2, i32 noundef 431, ptr noundef nonnull @.str.110, i32 noundef %19) #8
  %.not7 = icmp eq i32 %20, 0
  br i1 %.not7, label %21, label %22

21:                                               ; preds = %16
  call void @WPACKET_cleanup(ptr noundef nonnull %2) #8
  br label %.thread

22:                                               ; preds = %16
  %23 = call i32 @WPACKET_finish(ptr noundef nonnull %2) #8
  %24 = call i32 @WPACKET_get_total_written(ptr noundef nonnull %2, ptr noundef nonnull %3) #8
  %25 = icmp ne i32 %24, 0
  %26 = zext i1 %25 to i32
  %27 = call i32 @test_true(ptr noundef nonnull @.str.2, i32 noundef 438, ptr noundef nonnull @.str.111, i32 noundef %26) #8
  %.not8 = icmp eq i32 %27, 0
  br i1 %.not8, label %.thread, label %28

28:                                               ; preds = %22
  %29 = getelementptr inbounds nuw i8, ptr %0, i64 184
  %30 = load ptr, ptr %29, align 8, !tbaa !51
  %31 = getelementptr inbounds nuw i8, ptr %9, i64 8
  %32 = load ptr, ptr %31, align 8, !tbaa !116
  %33 = load i64, ptr %3, align 8, !tbaa !102
  %34 = call ptr @ossl_quic_cfq_add_frame(ptr noundef %30, i32 noundef 1, i32 noundef 2, i64 noundef 24, i32 noundef 0, ptr noundef %32, i64 noundef %33, ptr noundef nonnull @free_buf_mem, ptr noundef %9) #8
  %35 = call i32 @test_ptr(ptr noundef nonnull @.str.2, i32 noundef 446, ptr noundef nonnull @.str.112, ptr noundef %34) #8
  %.not9 = icmp eq i32 %35, 0
  br i1 %.not9, label %.thread, label %36

.thread:                                          ; preds = %1, %11, %21, %22, %28
  call void @BUF_MEM_free(ptr noundef %9) #8
  br label %36

36:                                               ; preds = %.thread, %28
  %.014 = phi i32 [ 0, %.thread ], [ 1, %28 ]
  call void @llvm.lifetime.end.p0(i64 56, ptr nonnull %4) #8
  call void @llvm.lifetime.end.p0(i64 8, ptr nonnull %3) #8
  call void @llvm.lifetime.end.p0(i64 56, ptr nonnull %2) #8
  ret i32 %.014
}